Certificate:
    Data:
        Version: 3 (0x2)
        Serial Number: 4097 (0x1001)
    Signature Algorithm: md5WithRSAEncryption
        Issuer: C=US, ST=UT, L=Salt Lake City, O=UtahMSD
        Validity
            Not Before: Mar 18 18:18:46 2019 GMT
            Not After : Mar 17 18:18:46 2020 GMT
        Subject: C=US, ST=UT, O=UtahMSD, CN=server
        Subject Public Key Info:
            Public Key Algorithm: rsaEncryption
                Public-Key: (4096 bit)
                Modulus:
                    00:d6:30:d3:f5:7c:47:a5:47:62:91:30:3e:dc:be:
                    9d:89:b4:49:12:f3:1e:e8:a6:b3:b3:74:99:95:42:
                    86:70:3b:51:fb:ec:bf:f5:ba:32:cf:ad:17:1e:2a:
                    d7:cb:d2:95:2b:9b:79:51:b3:db:cc:3a:61:70:61:
                    34:6b:6b:16:cc:35:63:19:e7:d5:23:ef:5c:36:91:
                    75:9a:a3:c7:a4:e7:d5:ac:a7:99:26:5b:6f:2e:8d:
                    b6:cd:01:8b:14:69:fd:70:43:fd:a9:1a:3d:80:63:
                    82:fa:ca:31:82:92:0e:15:e7:02:9f:58:b3:75:37:
                    cc:d7:b0:67:7c:5a:1e:00:04:3f:8d:8b:b3:fd:10:
                    0b:1b:62:f3:42:3b:dd:f9:2e:92:7e:ce:a8:4f:8e:
                    27:4c:da:dd:b4:40:48:44:91:fe:5c:54:8d:68:b4:
                    ca:54:7d:ce:68:15:88:b8:a0:18:e3:d6:a3:b2:c6:
                    88:27:24:65:af:2b:9a:ac:f9:72:68:6e:ad:bd:a0:
                    c4:7d:62:d4:3c:2e:a4:1d:fc:17:60:7c:68:59:90:
                    a7:c6:54:1e:54:00:f8:2c:27:6e:09:28:9e:b5:0d:
                    46:1c:12:12:97:48:d1:68:a3:f7:99:ff:c9:50:bf:
                    dc:15:9d:c5:9d:3c:6a:6a:77:5a:ed:bb:35:78:26:
                    36:0a:ef:9c:5b:82:25:7c:98:9b:76:0d:42:35:2b:
                    03:41:fb:d0:cf:75:1e:2e:3f:80:2f:86:34:3c:17:
                    99:e1:4d:b9:96:f6:2c:12:fb:93:3c:f5:c8:11:ee:
                    94:5d:67:3e:0e:67:63:14:95:74:1a:ad:ad:f4:98:
                    f9:57:21:bc:70:41:0d:ac:58:0d:0b:17:65:ff:00:
                    81:7e:5b:fd:f0:c3:0a:ee:ea:fc:73:5e:6d:5b:cc:
                    42:96:64:70:ef:54:15:10:6c:7d:cc:e7:df:47:41:
                    39:05:12:ba:eb:9f:81:2b:2a:4c:68:d4:53:2a:1c:
                    cc:20:89:48:15:c6:24:6e:f2:cc:ee:33:1a:63:d6:
                    31:95:84:a5:43:0b:1a:6c:8e:53:b7:b8:21:7a:32:
                    16:f8:ed:b9:66:49:da:a6:2d:22:b2:52:fa:62:75:
                    e3:e7:9c:01:50:2e:0a:1e:a1:0c:49:f9:cc:cd:0d:
                    df:53:66:a8:b9:34:b1:50:d3:1b:9a:84:e9:c7:61:
                    85:b1:fa:9d:a9:86:25:ce:44:d6:0a:7e:51:29:8f:
                    c5:b2:e8:b8:e5:07:28:2c:8b:40:37:ff:20:2e:cc:
                    12:6f:27:79:39:6b:79:66:62:7a:7c:5d:e3:07:1b:
                    04:7e:39:76:7f:9d:cc:93:b8:86:43:92:f3:4e:62:
                    6e:07:b1
                Exponent: 65537 (0x10001)
        X509v3 extensions:
            X509v3 Basic Constraints: 
                CA:FALSE
            Netscape Comment: 
                OpenSSL Generated Certificate
            X509v3 Subject Key Identifier: 
                90:32:CB:DC:19:75:17:52:28:1E:11:71:70:03:F8:52:3A:64:C5:40
            X509v3 Authority Key Identifier: 
                DirName:/C=US/ST=UT/L=Salt Lake City/O=UtahMSD
                serial:8A:29:5F:D3:DE:9C:35:20

    Signature Algorithm: md5WithRSAEncryption
         1a:3b:68:b3:82:7c:50:d8:91:c1:34:9e:66:69:c6:50:49:99:
         5a:aa:30:77:a4:5d:0b:9b:93:19:11:5f:33:2c:31:6b:a9:d5:
         76:6d:98:9a:8a:87:20:49:cc:c5:d6:5b:ff:1e:5a:60:34:22:
         ab:06:52:55:d1:cf:f0:e9:0f:88:93:8f:63:41:af:27:6d:32:
         e5:21:05:0b:04:85:aa:ac:f0:69:57:3d:26:cc:02:a7:40:cb:
         8a:0e:43:54:59:e1:c5:94:78:0e:2e:af:e9:ca:27:55:52:ee:
         33:7e:3b:ab:5b:a1:fc:63:08:5a:cb:c7:c7:1e:93:b4:05:27:
         c5:c0:ba:2d:3d:d6:85:fc:52:8d:05:b8:c4:f1:7f:3a:ba:21:
         5d:f1:74:bb:81:b7:ca:ed:75:e7:bb:cc:96:06:4c:d2:06:e2:
         d7:31:32:50:eb:9f:2b:6c:ce:7f:dd:80:d7:9e:05:71:fd:fa:
         e4:56:fd:74:27:bb:21:1b:ea:bf:cc:4a:bc:bd:20:a5:fb:63:
         8c:a1:5b:69:5a:ed:7c:d1:57:a4:8f:4f:55:40:4e:01:4c:19:
         17:1c:e3:37:fa:ad:e1:f2:2d:8c:63:0f:44:dd:ea:9e:ed:f3:
         9d:e0:72:fc:89:fe:18:1d:07:50:65:42:44:d7:cf:d3:23:3f:
         52:84:ed:58:b5:75:f0:54:d2:05:f4:4b:ba:5c:43:81:13:ba:
         a9:8e:d2:66:04:3d:b2:10:eb:63:df:9c:5d:44:27:e0:1e:b1:
         af:b2:f8:92:b7:a8:a0:5d:f4:a3:3b:7e:ca:80:ea:90:65:be:
         76:44:17:79:ff:e5:d6:22:da:2f:fa:84:d9:35:23:c2:1b:74:
         4f:4c:db:a2:96:3f:dc:af:e0:e4:5e:3b:ef:93:c4:ff:2d:8e:
         cd:4e:af:74:5b:d8:67:c6:e3:84:6a:cf:5e:1a:ae:b0:4a:37:
         b5:5f:42:5c:d2:46:d1:bb:09:fb:b3:32:c1:6b:92:77:2f:d9:
         d2:2b:54:85:45:c3:75:1a:74:86:e4:39:bc:f5:0f:1a:36:04:
         de:48:6c:1b:50:e6:7d:d0:8d:7f:cc:1d:55:8b:15:61:b0:1e:
         71:6e:55:f5:08:26:36:dc:14:a4:30:40:92:a9:df:75:32:f7:
         f5:32:5b:42:1d:ef:af:09:ba:b0:bf:e3:87:7b:2e:89:8c:22:
         0e:9e:05:36:71:2f:27:b0:b0:3a:93:26:8f:21:f9:24:b6:37:
         ee:eb:1f:96:d0:fb:94:2e:44:08:bd:c8:a3:0a:6e:3e:f2:fd:
         7a:28:9c:95:e0:0f:8f:be:af:12:1f:49:44:f7:09:5d:5b:d1:
         ee:38:92:5b:a0:2b:f4:54
-----BEGIN CERTIFICATE-----
MIIFuzCCA6OgAwIBAgICEAEwDQYJKoZIhvcNAQEEBQAwRTELMAkGA1UEBhMCVVMx
CzAJBgNVBAgMAlVUMRcwFQYDVQQHDA5TYWx0IExha2UgQ2l0eTEQMA4GA1UECgwH
VXRhaE1TRDAeFw0xOTAzMTgxODE4NDZaFw0yMDAzMTcxODE4NDZaMD0xCzAJBgNV
BAYTAlVTMQswCQYDVQQIDAJVVDEQMA4GA1UECgwHVXRhaE1TRDEPMA0GA1UEAwwG
c2VydmVyMIICIjANBgkqhkiG9w0BAQEFAAOCAg8AMIICCgKCAgEA1jDT9XxHpUdi
kTA+3L6dibRJEvMe6Kazs3SZlUKGcDtR++y/9boyz60XHirXy9KVK5t5UbPbzDph
cGE0a2sWzDVjGefVI+9cNpF1mqPHpOfVrKeZJltvLo22zQGLFGn9cEP9qRo9gGOC
+soxgpIOFecCn1izdTfM17BnfFoeAAQ/jYuz/RALG2LzQjvd+S6Sfs6oT44nTNrd
tEBIRJH+XFSNaLTKVH3OaBWIuKAY49ajssaIJyRlryuarPlyaG6tvaDEfWLUPC6k
HfwXYHxoWZCnxlQeVAD4LCduCSietQ1GHBISl0jRaKP3mf/JUL/cFZ3FnTxqanda
7bs1eCY2Cu+cW4IlfJibdg1CNSsDQfvQz3UeLj+AL4Y0PBeZ4U25lvYsEvuTPPXI
Ee6UXWc+DmdjFJV0Gq2t9Jj5VyG8cEENrFgNCxdl/wCBflv98MMK7ur8c15tW8xC
lmRw71QVEGx9zOffR0E5BRK665+BKypMaNRTKhzMIIlIFcYkbvLM7jMaY9YxlYSl
QwsabI5Tt7ghejIW+O25Zknapi0islL6YnXj55wBUC4KHqEMSfnMzQ3fU2aouTSx
UNMbmoTpx2GFsfqdqYYlzkTWCn5RKY/Fsui45QcoLItAN/8gLswSbyd5OWt5ZmJ6
fF3jBxsEfjl2f53Mk7iGQ5LzTmJuB7ECAwEAAaOBvDCBuTAJBgNVHRMEAjAAMCwG
CWCGSAGG+EIBDQQfFh1PcGVuU1NMIEdlbmVyYXRlZCBDZXJ0aWZpY2F0ZTAdBgNV
HQ4EFgQUkDLL3Bl1F1IoHhFxcAP4UjpkxUAwXwYDVR0jBFgwVqFJpEcwRTELMAkG
A1UEBhMCVVMxCzAJBgNVBAgMAlVUMRcwFQYDVQQHDA5TYWx0IExha2UgQ2l0eTEQ
MA4GA1UECgwHVXRhaE1TRIIJAIopX9PenDUgMA0GCSqGSIb3DQEBBAUAA4ICAQAa
O2izgnxQ2JHBNJ5macZQSZlaqjB3pF0Lm5MZEV8zLDFrqdV2bZiaiocgSczF1lv/
HlpgNCKrBlJV0c/w6Q+Ik49jQa8nbTLlIQULBIWqrPBpVz0mzAKnQMuKDkNUWeHF
lHgOLq/pyidVUu4zfjurW6H8Ywhay8fHHpO0BSfFwLotPdaF/FKNBbjE8X86uiFd
8XS7gbfK7XXnu8yWBkzSBuLXMTJQ658rbM5/3YDXngVx/frkVv10J7shG+q/zEq8
vSCl+2OMoVtpWu180Vekj09VQE4BTBkXHOM3+q3h8i2MYw9E3eqe7fOd4HL8if4Y
HQdQZUJE18/TIz9ShO1YtXXwVNIF9Eu6XEOBE7qpjtJmBD2yEOtj35xdRCfgHrGv
sviSt6igXfSjO37KgOqQZb52RBd5/+XWItov+oTZNSPCG3RPTNuilj/cr+DkXjvv
k8T/LY7NTq90W9hnxuOEas9eGq6wSje1X0Jc0kbRuwn7szLBa5J3L9nSK1SFRcN1
GnSG5Dm89Q8aNgTeSGwbUOZ90I1/zB1VixVhsB5xblX1CCY23BSkMECSqd91Mvf1
MltCHe+vCbqwv+OHey6JjCIOngU2cS8nsLA6kyaPIfkktjfu6x+W0PuULkQIvcij
Cm4+8v16KJyV4A+Pvq8SH0lE9wldW9HuOJJboCv0VA==
-----END CERTIFICATE-----
