Certificate:
    Data:
        Version: 3 (0x2)
        Serial Number: 4096 (0x1000)
    Signature Algorithm: md5WithRSAEncryption
        Issuer: C=US, ST=UT, L=Salt Lake City, O=UtahMSD
        Validity
            Not Before: Mar 18 18:16:37 2019 GMT
            Not After : Mar 17 18:16:37 2020 GMT
        Subject: C=US, ST=UT, O=UtahMSD, CN=client
        Subject Public Key Info:
            Public Key Algorithm: rsaEncryption
                Public-Key: (4096 bit)
                Modulus:
                    00:d4:3b:4a:3f:ce:6f:1a:a2:36:6b:f7:af:6c:92:
                    e0:dc:32:d0:48:df:03:71:13:10:36:4b:c4:80:fb:
                    88:8f:8a:ff:00:ed:e5:24:1c:e3:98:75:bd:9d:36:
                    50:46:4e:00:86:8f:69:78:4f:b3:6e:0d:13:e2:19:
                    44:b4:9f:f1:a3:fb:c3:5c:d9:2e:c1:3b:56:ae:f6:
                    9c:b5:5a:c9:13:75:2e:51:6e:eb:c6:5e:64:c4:ea:
                    a6:b9:25:8c:98:09:ca:5d:ff:53:0a:2d:3a:52:b3:
                    e7:df:9b:95:e2:6d:c6:eb:9c:58:d2:f8:02:fc:f2:
                    eb:61:60:47:b9:52:db:79:a7:b8:1b:5d:b2:81:2f:
                    a6:4d:1c:6d:c6:09:c9:32:83:37:8d:8d:54:1f:b1:
                    71:02:22:29:d3:73:78:1f:cf:0e:26:e6:ed:78:fd:
                    27:65:05:8d:b0:ac:8a:a3:b7:05:e0:6d:cd:12:8b:
                    c5:73:55:65:4d:b3:c4:9d:37:c2:72:15:0d:56:0f:
                    df:7d:b0:bd:6a:a1:36:31:d6:1c:c6:39:24:b1:28:
                    28:d3:66:ce:eb:6d:7c:26:f6:f4:36:ec:08:2c:9d:
                    b4:97:ee:9a:4c:88:0f:dd:27:4d:54:bf:2d:0a:aa:
                    58:d1:48:e8:ee:e1:58:aa:af:11:b0:a2:6c:2f:2f:
                    95:bf:cb:b9:9e:d0:17:22:cc:cd:7a:43:ac:e2:15:
                    ef:13:36:44:4e:9a:6e:7e:0a:4f:c6:44:0e:d9:81:
                    4c:52:9e:3b:f9:e8:6e:cc:de:59:b2:45:a8:5f:5b:
                    4b:d2:8d:53:d4:81:48:df:40:de:87:4b:05:b6:68:
                    f7:7f:9f:fc:a4:af:e3:21:cc:0d:3a:25:3a:a9:b2:
                    53:f7:f7:53:1c:6c:84:be:83:f1:7a:26:8c:ec:95:
                    4f:05:22:1e:9c:04:cb:99:df:57:16:85:0d:33:97:
                    77:09:74:78:09:0b:b2:53:5c:a3:1d:6c:3b:e7:c3:
                    5b:d6:20:9c:20:ac:2d:8c:51:95:0f:9f:de:91:c1:
                    16:73:12:5d:dd:3c:c3:a3:8a:85:fc:8a:5f:b3:a0:
                    ad:04:e5:b7:af:8d:2d:58:eb:37:18:b2:44:55:3c:
                    81:e3:3b:20:a1:21:26:9d:45:55:64:cf:2b:f3:c5:
                    7c:c1:81:b3:5a:8c:82:94:02:25:61:e1:33:3c:2b:
                    27:c6:7f:4d:1b:5e:6c:e1:ad:50:51:eb:8d:05:88:
                    aa:f3:4f:83:5c:73:5a:e7:a0:ee:74:8d:fe:ef:3a:
                    a5:fb:e1:89:87:e1:87:45:f0:00:96:6d:26:6a:53:
                    ea:40:3a:64:6a:7d:70:39:c0:a8:c2:b1:b4:bf:83:
                    d0:79:e9
                Exponent: 65537 (0x10001)
        X509v3 extensions:
            X509v3 Basic Constraints: 
                CA:FALSE
            Netscape Comment: 
                OpenSSL Generated Certificate
            X509v3 Subject Key Identifier: 
                09:01:2A:75:25:C1:52:60:3C:DA:CF:3B:0B:32:D1:DB:14:8A:87:37
            X509v3 Authority Key Identifier: 
                DirName:/C=US/ST=UT/L=Salt Lake City/O=UtahMSD
                serial:8A:29:5F:D3:DE:9C:35:20

    Signature Algorithm: md5WithRSAEncryption
         4e:de:e3:bb:9a:ec:ad:bb:42:9c:a6:b8:3a:07:ac:f2:05:2b:
         23:ef:c1:2b:83:d3:14:2b:55:55:eb:fe:58:34:27:d0:f1:28:
         e3:50:1b:45:16:b6:3a:36:d1:7e:5d:06:78:de:34:0b:ce:aa:
         88:11:65:1b:b2:3b:f8:22:c2:a7:28:4d:72:35:61:2d:27:3e:
         55:3f:c3:d9:b5:56:01:9c:c7:69:29:61:82:98:e9:f3:84:4a:
         cc:06:de:1e:2a:1f:61:c0:0e:96:a3:15:af:ab:47:e0:1d:e2:
         09:a1:64:86:8b:3a:85:92:e2:05:bc:d4:2f:35:31:d1:54:87:
         93:f2:e7:6e:d2:37:a2:c0:c1:a0:70:2b:1d:bd:fc:f4:da:92:
         67:3d:8d:1b:fb:82:5d:21:1a:31:d0:b3:02:ba:a7:02:c9:53:
         9e:2d:d1:00:73:94:c9:b6:f2:04:81:cf:28:f3:9f:bc:c9:74:
         bc:40:9e:0d:82:e0:79:4c:09:29:fa:45:4a:15:15:04:34:34:
         c7:25:23:06:4f:0c:fd:17:7f:75:ae:ea:3f:9a:19:17:c0:c3:
         03:9b:e7:a3:29:80:f5:b0:87:ee:53:3f:c0:3a:32:a2:0a:85:
         c3:27:83:de:3e:47:60:28:a9:2b:dd:2f:0a:73:e8:a7:8c:0f:
         9b:70:b0:72:04:c2:f2:43:94:38:be:24:b5:77:d8:95:a2:bb:
         98:96:de:c2:76:fb:17:c6:e2:60:35:8a:09:06:4e:6b:29:0c:
         0a:14:58:c7:65:1b:01:9d:00:09:ab:bb:0c:cb:99:79:69:d5:
         a5:49:cd:ab:2b:17:c0:54:7a:13:86:45:17:28:1b:64:ce:1c:
         fe:e0:06:32:77:50:c9:7a:85:c4:41:11:8c:9c:2f:f7:e7:90:
         9b:b3:05:d9:98:85:03:07:30:09:0b:20:9c:f1:d7:bb:51:c2:
         74:07:9b:4d:18:44:09:8a:c1:18:16:c3:95:d8:ed:42:19:bf:
         57:58:57:2b:12:d7:bf:99:82:05:b4:12:9d:4c:7f:02:f2:f3:
         0c:d1:b3:2f:91:54:47:dd:a6:14:12:d3:ac:44:f8:7a:3a:86:
         b3:67:a4:74:e9:e7:c1:91:e4:9a:b2:1b:7c:52:bc:f3:ab:32:
         2a:cc:7b:40:5c:fb:63:c1:b4:40:df:21:63:07:53:01:cf:39:
         0a:59:4a:52:57:fc:b5:89:09:83:cf:99:1e:22:0c:ec:45:e0:
         74:af:c7:3f:2f:a7:48:8c:e0:92:29:6f:06:16:7b:b9:a7:33:
         7d:10:25:23:83:6f:31:78:27:76:dc:7e:20:16:74:c3:78:99:
         76:ce:39:2f:ee:01:4e:0f
-----BEGIN CERTIFICATE-----
MIIFuzCCA6OgAwIBAgICEAAwDQYJKoZIhvcNAQEEBQAwRTELMAkGA1UEBhMCVVMx
CzAJBgNVBAgMAlVUMRcwFQYDVQQHDA5TYWx0IExha2UgQ2l0eTEQMA4GA1UECgwH
VXRhaE1TRDAeFw0xOTAzMTgxODE2MzdaFw0yMDAzMTcxODE2MzdaMD0xCzAJBgNV
BAYTAlVTMQswCQYDVQQIDAJVVDEQMA4GA1UECgwHVXRhaE1TRDEPMA0GA1UEAwwG
Y2xpZW50MIICIjANBgkqhkiG9w0BAQEFAAOCAg8AMIICCgKCAgEA1DtKP85vGqI2
a/evbJLg3DLQSN8DcRMQNkvEgPuIj4r/AO3lJBzjmHW9nTZQRk4Aho9peE+zbg0T
4hlEtJ/xo/vDXNkuwTtWrvactVrJE3UuUW7rxl5kxOqmuSWMmAnKXf9TCi06UrPn
35uV4m3G65xY0vgC/PLrYWBHuVLbeae4G12ygS+mTRxtxgnJMoM3jY1UH7FxAiIp
03N4H88OJubteP0nZQWNsKyKo7cF4G3NEovFc1VlTbPEnTfCchUNVg/ffbC9aqE2
MdYcxjkksSgo02bO6218Jvb0NuwILJ20l+6aTIgP3SdNVL8tCqpY0Ujo7uFYqq8R
sKJsLy+Vv8u5ntAXIszNekOs4hXvEzZETppufgpPxkQO2YFMUp47+ehuzN5ZskWo
X1tL0o1T1IFI30Deh0sFtmj3f5/8pK/jIcwNOiU6qbJT9/dTHGyEvoPxeiaM7JVP
BSIenATLmd9XFoUNM5d3CXR4CQuyU1yjHWw758Nb1iCcIKwtjFGVD5/ekcEWcxJd
3TzDo4qF/Ipfs6CtBOW3r40tWOs3GLJEVTyB4zsgoSEmnUVVZM8r88V8wYGzWoyC
lAIlYeEzPCsnxn9NG15s4a1QUeuNBYiq80+DXHNa56DudI3+7zql++GJh+GHRfAA
lm0malPqQDpkan1wOcCowrG0v4PQeekCAwEAAaOBvDCBuTAJBgNVHRMEAjAAMCwG
CWCGSAGG+EIBDQQfFh1PcGVuU1NMIEdlbmVyYXRlZCBDZXJ0aWZpY2F0ZTAdBgNV
HQ4EFgQUCQEqdSXBUmA82s87CzLR2xSKhzcwXwYDVR0jBFgwVqFJpEcwRTELMAkG
A1UEBhMCVVMxCzAJBgNVBAgMAlVUMRcwFQYDVQQHDA5TYWx0IExha2UgQ2l0eTEQ
MA4GA1UECgwHVXRhaE1TRIIJAIopX9PenDUgMA0GCSqGSIb3DQEBBAUAA4ICAQBO
3uO7muytu0Kcprg6B6zyBSsj78Erg9MUK1VV6/5YNCfQ8SjjUBtFFrY6NtF+XQZ4
3jQLzqqIEWUbsjv4IsKnKE1yNWEtJz5VP8PZtVYBnMdpKWGCmOnzhErMBt4eKh9h
wA6WoxWvq0fgHeIJoWSGizqFkuIFvNQvNTHRVIeT8udu0jeiwMGgcCsdvfz02pJn
PY0b+4JdIRox0LMCuqcCyVOeLdEAc5TJtvIEgc8o85+8yXS8QJ4NguB5TAkp+kVK
FRUENDTHJSMGTwz9F391ruo/mhkXwMMDm+ejKYD1sIfuUz/AOjKiCoXDJ4PePkdg
KKkr3S8Kc+injA+bcLByBMLyQ5Q4viS1d9iVoruYlt7CdvsXxuJgNYoJBk5rKQwK
FFjHZRsBnQAJq7sMy5l5adWlSc2rKxfAVHoThkUXKBtkzhz+4AYyd1DJeoXEQRGM
nC/355CbswXZmIUDBzAJCyCc8de7UcJ0B5tNGEQJisEYFsOV2O1CGb9XWFcrEte/
mYIFtBKdTH8C8vMM0bMvkVRH3aYUEtOsRPh6OoazZ6R06efBkeSasht8UrzzqzIq
zHtAXPtjwbRA3yFjB1MBzzkKWUpSV/y1iQmDz5keIgzsReB0r8c/L6dIjOCSKW8G
Fnu5pzN9ECUjg28xeCd23H4gFnTDeJl2zjkv7gFODw==
-----END CERTIFICATE-----
